target datalayout = "e-m:e-p270:32:32-p271:32:32-p272:64:64-i64:64-i128:128-f80:128-n8:16:32:64-S128"
target triple = "x86_64-pc-linux-gnu"

%struct.WMAProDecodeCtx = type { ptr, ptr, [32832 x i8], %struct.PutBitContext, [8 x ptr], [8 x ptr], [8192 x float], [8 x ptr], i32, i8, i8, i8, i16, i16, i16, i16, i8, i8, i8, i8, i16, [8 x i8], [8 x [29 x i16]], [8 x [8 x [29 x i8]]], [8 x i16], %struct.GetBitContext, i32, i8, i8, i32, i32, i32, i8, i8, i8, i32, %struct.GetBitContext, i32, i8, i8, i8, i8, i16, i8, i8, [8 x i8], i8, i8, ptr, i8, i8, i8, [8 x %struct.WMAProChannelGrp], [8 x i8], [8 x %struct.WMAProChannelCtx] }
%struct.PutBitContext = type { i32, i32, ptr, ptr, ptr }
%struct.GetBitContext = type { ptr, ptr, i32, i32, i32 }
%struct.WMAProChannelGrp = type { i8, i8, [29 x i8], [64 x float], [8 x ptr] }
%struct.WMAProChannelCtx = type { i16, i8, i8, [32 x i16], [32 x i16], i8, i16, i8, i32, i8, i8, i32, [2 x [29 x i32]], i8, ptr, i8, ptr, i16, [14 x i8], [12288 x float] }

; Function Attrs: cold nounwind optsize uwtable
define internal i32 @decode_end(ptr noundef %0) #0 {
  %2 = alloca ptr, align 8
  %3 = alloca i32, align 4
  store ptr %0, ptr %2, align 8, !tbaa !29
  call void @llvm.lifetime.start.p0(i64 4, ptr %3) #11
  %4 = load ptr, ptr %2, align 8, !tbaa !29
  %5 = getelementptr inbounds nuw %struct.WMAProDecodeCtx, ptr %4, i32 0, i32 1
  call void @av_freep(ptr noundef %5)
  store i32 0, ptr %3, align 4, !tbaa !47
  br label %6

6:                                                ; preds = %15, %1
  %7 = load i32, ptr %3, align 4, !tbaa !47
  %8 = icmp slt i32 %7, 8
  br i1 %8, label %9, label %18

9:                                                ; preds = %6
  %10 = load ptr, ptr %2, align 8, !tbaa !29
  %11 = getelementptr inbounds nuw %struct.WMAProDecodeCtx, ptr %10, i32 0, i32 4
  %12 = load i32, ptr %3, align 4, !tbaa !47
  %13 = sext i32 %12 to i64
  %14 = getelementptr inbounds [8 x ptr], ptr %11, i64 0, i64 %13
  call void @av_tx_uninit(ptr noundef %14)
  br label %15

15:                                               ; preds = %9
  %16 = load i32, ptr %3, align 4, !tbaa !47
  %17 = add nsw i32 %16, 1
  store i32 %17, ptr %3, align 4, !tbaa !47
  br label %6, !llvm.loop !250

18:                                               ; preds = %6
  call void @llvm.lifetime.end.p0(i64 4, ptr %3) #11
  ret i32 0
}