; Function Attrs: cold nounwind optsize uwtable
define internal fastcc void @decode_end(ptr noundef %0) unnamed_addr #0 {
  %2 = getelementptr inbounds nuw i8, ptr %0, i64 8
  tail call void @av_freep(ptr noundef nonnull %2) #11
  %3 = getelementptr inbounds nuw i8, ptr %0, i64 32880
  br label %4

4:                                                ; preds = %1, %4
  %indvars.iv = phi i64 [ 0, %1 ], [ %indvars.iv.next, %4 ]
  %5 = getelementptr inbounds nuw [8 x ptr], ptr %3, i64 0, i64 %indvars.iv
  tail call void @av_tx_uninit(ptr noundef nonnull %5) #11
  %indvars.iv.next = add nuw nsw i64 %indvars.iv, 1
  %exitcond.not = icmp eq i64 %indvars.iv.next, 8
  br i1 %exitcond.not, label %6, label %4, !llvm.loop !230

6:                                                ; preds = %4
  ret void
}